target datalayout = "e-m:e-p270:32:32-p271:32:32-p272:64:64-i64:64-i128:128-f80:128-n8:16:32:64-S128"
target triple = "x86_64-pc-linux-gnu"

%struct.URLContext = type { ptr, ptr, ptr, ptr, i32, i32, i32, i32, %struct.AVIOInterruptCB, i64, ptr, ptr, i32 }
%struct.AVIOInterruptCB = type { ptr, ptr }
%struct.RTMPContext = type { ptr, ptr, [2 x ptr], [2 x i32], i32, i32, i32, ptr, i32, ptr, ptr, i32, i32, ptr, i32, i32, i32, %struct.RTMPPacket, i32, i64, i64, i32, i32, i32, i32, i32, [11 x i8], i32, i32, ptr, ptr, ptr, i32, i32, ptr, ptr, [42 x i8], ptr, ptr, i32, i32, i32, i32, ptr, i32, i32, i32, i32, i32, double, i32, ptr, [50 x i8], [50 x i8], [500 x i8], i32, i32 }
%struct.RTMPPacket = type { i32, i32, i32, i32, i32, ptr, i32, i32, i32 }

@.str.98 = private unnamed_addr constant [6 x i8] c"level\00", align 1
@.str.99 = private unnamed_addr constant [7 x i8] c"status\00", align 1
@.str.100 = private unnamed_addr constant [5 x i8] c"code\00", align 1
@.str.102 = private unnamed_addr constant [12 x i8] c"description\00", align 1
@.str.123 = private unnamed_addr constant [9 x i8] c"onStatus\00", align 1
@.str.184 = private unnamed_addr constant [34 x i8] c"Unable to create response packet\0A\00", align 1
@.str.188 = private unnamed_addr constant [8 x i8] c"details\00", align 1

; Function Attrs: nounwind uwtable
define internal i32 @write_status(ptr noundef %0, ptr noundef %1, ptr noundef %2, ptr noundef %3, ptr noundef %4) #0 {
  %6 = alloca i32, align 4
  %7 = alloca ptr, align 8
  %8 = alloca ptr, align 8
  %9 = alloca ptr, align 8
  %10 = alloca ptr, align 8
  %11 = alloca ptr, align 8
  %12 = alloca ptr, align 8
  %13 = alloca %struct.RTMPPacket, align 8
  %14 = alloca ptr, align 8
  %15 = alloca i32, align 4
  %16 = alloca i32, align 4
  store ptr %0, ptr %7, align 8, !tbaa !4
  store ptr %1, ptr %8, align 8, !tbaa !57
  store ptr %2, ptr %9, align 8, !tbaa !9
  store ptr %3, ptr %10, align 8, !tbaa !9
  store ptr %4, ptr %11, align 8, !tbaa !9
  call void @llvm.lifetime.start.p0(i64 8, ptr %12) #12
  %17 = load ptr, ptr %7, align 8, !tbaa !4
  %18 = getelementptr inbounds nuw %struct.URLContext, ptr %17, i32 0, i32 2
  %19 = load ptr, ptr %18, align 8, !tbaa !16
  store ptr %19, ptr %12, align 8, !tbaa !22
  call void @llvm.lifetime.start.p0(i64 48, ptr %13) #12
  call void @llvm.memset.p0.i64(ptr align 8 %13, i8 0, i64 48, i1 false)
  call void @llvm.lifetime.start.p0(i64 8, ptr %14) #12
  call void @llvm.lifetime.start.p0(i64 4, ptr %15) #12
  %20 = call i32 @ff_rtmp_packet_create(ptr noundef %13, i32 noundef 3, i32 noundef 20, i32 noundef 0, i32 noundef 4096)
  store i32 %20, ptr %15, align 4, !tbaa !11
  %21 = icmp slt i32 %20, 0
  br i1 %21, label %22, label %25

22:                                               ; preds = %5
  %23 = load ptr, ptr %7, align 8, !tbaa !4
  call void (ptr, i32, ptr, ...) @av_log(ptr noundef %23, i32 noundef 16, ptr noundef @.str.184)
  %24 = load i32, ptr %15, align 4, !tbaa !11
  store i32 %24, ptr %6, align 4
  store i32 1, ptr %16, align 4
  br label %61

25:                                               ; preds = %5
  %26 = getelementptr inbounds nuw %struct.RTMPPacket, ptr %13, i32 0, i32 5
  %27 = load ptr, ptr %26, align 8, !tbaa !90
  store ptr %27, ptr %14, align 8, !tbaa !9
  %28 = load ptr, ptr %8, align 8, !tbaa !57
  %29 = getelementptr inbounds nuw %struct.RTMPPacket, ptr %28, i32 0, i32 4
  %30 = load i32, ptr %29, align 8, !tbaa !148
  %31 = getelementptr inbounds nuw %struct.RTMPPacket, ptr %13, i32 0, i32 4
  store i32 %30, ptr %31, align 8, !tbaa !148
  call void @ff_amf_write_string(ptr noundef %14, ptr noundef @.str.123)
  call void @ff_amf_write_number(ptr noundef %14, double noundef 0.000000e+00)
  call void @ff_amf_write_null(ptr noundef %14)
  call void @ff_amf_write_object_start(ptr noundef %14)
  call void @ff_amf_write_field_name(ptr noundef %14, ptr noundef @.str.98)
  call void @ff_amf_write_string(ptr noundef %14, ptr noundef @.str.99)
  call void @ff_amf_write_field_name(ptr noundef %14, ptr noundef @.str.100)
  %32 = load ptr, ptr %9, align 8, !tbaa !9
  call void @ff_amf_write_string(ptr noundef %14, ptr noundef %32)
  call void @ff_amf_write_field_name(ptr noundef %14, ptr noundef @.str.102)
  %33 = load ptr, ptr %10, align 8, !tbaa !9
  call void @ff_amf_write_string(ptr noundef %14, ptr noundef %33)
  %34 = load ptr, ptr %11, align 8, !tbaa !9
  %35 = icmp ne ptr %34, null
  br i1 %35, label %36, label %38

36:                                               ; preds = %25
  call void @ff_amf_write_field_name(ptr noundef %14, ptr noundef @.str.188)
  %37 = load ptr, ptr %11, align 8, !tbaa !9
  call void @ff_amf_write_string(ptr noundef %14, ptr noundef %37)
  br label %38

38:                                               ; preds = %36, %25
  call void @ff_amf_write_object_end(ptr noundef %14)
  %39 = load ptr, ptr %14, align 8, !tbaa !9
  %40 = getelementptr inbounds nuw %struct.RTMPPacket, ptr %13, i32 0, i32 5
  %41 = load ptr, ptr %40, align 8, !tbaa !90
  %42 = ptrtoint ptr %39 to i64
  %43 = ptrtoint ptr %41 to i64
  %44 = sub i64 %42, %43
  %45 = trunc i64 %44 to i32
  %46 = getelementptr inbounds nuw %struct.RTMPPacket, ptr %13, i32 0, i32 6
  store i32 %45, ptr %46, align 8, !tbaa !97
  %47 = load ptr, ptr %12, align 8, !tbaa !22
  %48 = getelementptr inbounds nuw %struct.RTMPContext, ptr %47, i32 0, i32 1
  %49 = load ptr, ptr %48, align 8, !tbaa !65
  %50 = load ptr, ptr %12, align 8, !tbaa !22
  %51 = getelementptr inbounds nuw %struct.RTMPContext, ptr %50, i32 0, i32 5
  %52 = load i32, ptr %51, align 4, !tbaa !39
  %53 = load ptr, ptr %12, align 8, !tbaa !22
  %54 = getelementptr inbounds nuw %struct.RTMPContext, ptr %53, i32 0, i32 2
  %55 = getelementptr inbounds [2 x ptr], ptr %54, i64 0, i64 1
  %56 = load ptr, ptr %12, align 8, !tbaa !22
  %57 = getelementptr inbounds nuw %struct.RTMPContext, ptr %56, i32 0, i32 3
  %58 = getelementptr inbounds [2 x i32], ptr %57, i64 0, i64 1
  %59 = call i32 @ff_rtmp_packet_write(ptr noundef %49, ptr noundef %13, i32 noundef %52, ptr noundef %55, ptr noundef %58)
  store i32 %59, ptr %15, align 4, !tbaa !11
  call void @ff_rtmp_packet_destroy(ptr noundef %13)
  %60 = load i32, ptr %15, align 4, !tbaa !11
  store i32 %60, ptr %6, align 4
  store i32 1, ptr %16, align 4
  br label %61

61:                                               ; preds = %38, %22
  call void @llvm.lifetime.end.p0(i64 4, ptr %15) #12
  call void @llvm.lifetime.end.p0(i64 8, ptr %14) #12
  call void @llvm.lifetime.end.p0(i64 48, ptr %13) #12
  call void @llvm.lifetime.end.p0(i64 8, ptr %12) #12
  %62 = load i32, ptr %6, align 4
  ret i32 %62
}