; Function Attrs: nounwind uwtable
define internal fastcc i32 @write_status(ptr noundef %0, ptr noundef nonnull readonly captures(none) %1, ptr noundef %2, ptr noundef %3, ptr noundef %4) unnamed_addr #0 {
  %6 = alloca %struct.RTMPPacket, align 8
  %7 = alloca ptr, align 8
  %8 = getelementptr inbounds nuw i8, ptr %0, i64 16
  %9 = load ptr, ptr %8, align 8, !tbaa !4
  call void @llvm.lifetime.start.p0(i64 48, ptr nonnull %6) #11
  call void @llvm.memset.p0.i64(ptr noundef nonnull align 8 dereferenceable(48) %6, i8 0, i64 48, i1 false)
  call void @llvm.lifetime.start.p0(i64 8, ptr nonnull %7) #11
  %10 = call i32 @ff_rtmp_packet_create(ptr noundef nonnull %6, i32 noundef 3, i32 noundef 20, i32 noundef 0, i32 noundef 4096) #11
  %11 = icmp slt i32 %10, 0
  br i1 %11, label %12, label %13

12:                                               ; preds = %5
  call void (ptr, i32, ptr, ...) @av_log(ptr noundef nonnull %0, i32 noundef 16, ptr noundef nonnull @.str.184) #11
  br label %35

13:                                               ; preds = %5
  %14 = getelementptr inbounds nuw i8, ptr %6, i64 24
  %15 = load ptr, ptr %14, align 8, !tbaa !63
  store ptr %15, ptr %7, align 8, !tbaa !31
  %16 = getelementptr inbounds nuw i8, ptr %1, i64 16
  %17 = load i32, ptr %16, align 8, !tbaa !107
  %18 = getelementptr inbounds nuw i8, ptr %6, i64 16
  store i32 %17, ptr %18, align 8, !tbaa !107
  call void @ff_amf_write_string(ptr noundef nonnull %7, ptr noundef nonnull @.str.123) #11
  call void @ff_amf_write_number(ptr noundef nonnull %7, double noundef 0.000000e+00) #11
  call void @ff_amf_write_null(ptr noundef nonnull %7) #11
  call void @ff_amf_write_object_start(ptr noundef nonnull %7) #11
  call void @ff_amf_write_field_name(ptr noundef nonnull %7, ptr noundef nonnull @.str.98) #11
  call void @ff_amf_write_string(ptr noundef nonnull %7, ptr noundef nonnull @.str.99) #11
  call void @ff_amf_write_field_name(ptr noundef nonnull %7, ptr noundef nonnull @.str.100) #11
  call void @ff_amf_write_string(ptr noundef nonnull %7, ptr noundef %2) #11
  call void @ff_amf_write_field_name(ptr noundef nonnull %7, ptr noundef nonnull @.str.102) #11
  call void @ff_amf_write_string(ptr noundef nonnull %7, ptr noundef %3) #11
  %.not = icmp eq ptr %4, null
  br i1 %.not, label %20, label %19

19:                                               ; preds = %13
  call void @ff_amf_write_field_name(ptr noundef nonnull %7, ptr noundef nonnull @.str.188) #11
  call void @ff_amf_write_string(ptr noundef nonnull %7, ptr noundef nonnull %4) #11
  br label %20

20:                                               ; preds = %19, %13
  call void @ff_amf_write_object_end(ptr noundef nonnull %7) #11
  %21 = load ptr, ptr %7, align 8, !tbaa !31
  %22 = load ptr, ptr %14, align 8, !tbaa !63
  %23 = ptrtoint ptr %21 to i64
  %24 = ptrtoint ptr %22 to i64
  %25 = sub i64 %23, %24
  %26 = trunc i64 %25 to i32
  %27 = getelementptr inbounds nuw i8, ptr %6, i64 32
  store i32 %26, ptr %27, align 8, !tbaa !70
  %28 = getelementptr inbounds nuw i8, ptr %9, i64 8
  %29 = load ptr, ptr %28, align 8, !tbaa !46
  %30 = getelementptr inbounds nuw i8, ptr %9, i64 44
  %31 = load i32, ptr %30, align 4, !tbaa !51
  %32 = getelementptr inbounds nuw i8, ptr %9, i64 24
  %33 = getelementptr inbounds nuw i8, ptr %9, i64 36
  %34 = call i32 @ff_rtmp_packet_write(ptr noundef %29, ptr noundef nonnull %6, i32 noundef %31, ptr noundef nonnull %32, ptr noundef nonnull %33) #11
  call void @ff_rtmp_packet_destroy(ptr noundef nonnull %6) #11
  br label %35

35:                                               ; preds = %20, %12
  %.0 = phi i32 [ %10, %12 ], [ %34, %20 ]
  call void @llvm.lifetime.end.p0(i64 8, ptr nonnull %7) #11
  call void @llvm.lifetime.end.p0(i64 48, ptr nonnull %6) #11
  ret i32 %.0
}